target datalayout = "e-m:e-p270:32:32-p271:32:32-p272:64:64-i64:64-i128:128-f80:128-n8:16:32:64-S128"
target triple = "x86_64-pc-linux-gnu"

%union.pthread_mutex_t = type { %struct.__pthread_mutex_s }
%struct.__pthread_mutex_s = type { i32, i32, i32, i32, i32, i16, i16, %struct.__pthread_internal_list }
%struct.__pthread_internal_list = type { ptr, ptr }
%struct.sigaction = type { %union.anon, %struct.__sigset_t, i32, ptr }
%union.anon = type { ptr }
%struct.__sigset_t = type { [16 x i64] }
%"class.llvm::CrashRecoveryContext" = type <{ ptr, ptr, i32, i8, [3 x i8] }>
%"struct.(anonymous namespace)::CrashRecoveryContextImpl" = type <{ ptr, ptr, [1 x %struct.__jmp_buf_tag], i8, [7 x i8] }>
%struct.__jmp_buf_tag = type { [8 x i64], i32, %struct.__sigset_t }
%"class.std::lock_guard" = type { ptr }
%"class.std::__mutex_base" = type { %union.pthread_mutex_t }

@_ZN12_GLOBAL__N_121gCrashRecoveryEnabledE = internal global i8 0, align 1
@_ZN12_GLOBAL__N_114CurrentContextE = internal thread_local global ptr null, align 8
@_ZZN12_GLOBAL__N_128getCrashRecoveryContextMutexEvE25CrashRecoveryContextMutex = internal global { %union.pthread_mutex_t } zeroinitializer, align 8
@_ZL7Signals = internal constant [6 x i32] [i32 6, i32 7, i32 8, i32 4, i32 11, i32 5], align 16
@_ZL11PrevActions = internal global [6 x %struct.sigaction] zeroinitializer, align 16

; Function Attrs: mustprogress nounwind uwtable
define internal noundef i32 @_ZL18__gthread_active_pv() #0 {
  ret i32 1
}

; Function Attrs: mustprogress nounwind uwtable
define internal noundef i32 @_ZL22__gthread_mutex_unlockP15pthread_mutex_t(ptr noundef %0) #0 {
  %2 = alloca i32, align 4
  %3 = alloca ptr, align 8
  store ptr %0, ptr %3, align 8
  %4 = call noundef i32 @_ZL18__gthread_active_pv()
  %5 = icmp ne i32 %4, 0
  br i1 %5, label %6, label %9

6:                                                ; preds = %1
  %7 = load ptr, ptr %3, align 8
  %8 = call i32 @pthread_mutex_unlock(ptr noundef %7) #13
  store i32 %8, ptr %2, align 4
  br label %10

9:                                                ; preds = %1
  store i32 0, ptr %2, align 4
  br label %10

10:                                               ; preds = %9, %6
  %11 = load i32, ptr %2, align 4
  ret i32 %11
}

; Function Attrs: mustprogress nounwind uwtable
define internal noundef i32 @_ZL20__gthread_mutex_lockP15pthread_mutex_t(ptr noundef %0) #0 {
  %2 = alloca i32, align 4
  %3 = alloca ptr, align 8
  store ptr %0, ptr %3, align 8
  %4 = call noundef i32 @_ZL18__gthread_active_pv()
  %5 = icmp ne i32 %4, 0
  br i1 %5, label %6, label %9

6:                                                ; preds = %1
  %7 = load ptr, ptr %3, align 8
  %8 = call i32 @pthread_mutex_lock(ptr noundef %7) #13
  store i32 %8, ptr %2, align 4
  br label %10

9:                                                ; preds = %1
  store i32 0, ptr %2, align 4
  br label %10

10:                                               ; preds = %9, %6
  %11 = load i32, ptr %2, align 4
  ret i32 %11
}

; Function Attrs: mustprogress nounwind uwtable
define linkonce_odr hidden void @_ZNSt5mutex6unlockEv(ptr noundef nonnull align 8 dereferenceable(40) %0) #0 comdat align 2 {
  %2 = alloca ptr, align 8
  store ptr %0, ptr %2, align 8
  %3 = load ptr, ptr %2, align 8
  %4 = getelementptr inbounds nuw %"class.std::__mutex_base", ptr %3, i32 0, i32 0
  %5 = call noundef i32 @_ZL22__gthread_mutex_unlockP15pthread_mutex_t(ptr noundef %4)
  ret void
}

; Function Attrs: mustprogress nounwind uwtable
define linkonce_odr hidden void @_ZNSt5mutex4lockEv(ptr noundef nonnull align 8 dereferenceable(40) %0) #0 comdat align 2 {
  %2 = alloca ptr, align 8
  %3 = alloca i32, align 4
  store ptr %0, ptr %2, align 8
  %4 = load ptr, ptr %2, align 8
  %5 = getelementptr inbounds nuw %"class.std::__mutex_base", ptr %4, i32 0, i32 0
  %6 = call noundef i32 @_ZL20__gthread_mutex_lockP15pthread_mutex_t(ptr noundef %5)
  store i32 %6, ptr %3, align 4
  %7 = load i32, ptr %3, align 4
  %8 = icmp ne i32 %7, 0
  br i1 %8, label %9, label %11

9:                                                ; preds = %1
  %10 = load i32, ptr %3, align 4
  call void @_ZSt20__throw_system_errori(i32 noundef %10) #17
  unreachable

11:                                               ; preds = %1
  ret void
}

; Function Attrs: mustprogress nounwind uwtable
define linkonce_odr hidden void @_ZNSt10lock_guardISt5mutexED2Ev(ptr noundef nonnull align 8 dereferenceable(8) %0) unnamed_addr #0 comdat align 2 {
  %2 = alloca ptr, align 8
  store ptr %0, ptr %2, align 8
  %3 = load ptr, ptr %2, align 8
  %4 = getelementptr inbounds nuw %"class.std::lock_guard", ptr %3, i32 0, i32 0
  %5 = load ptr, ptr %4, align 8
  call void @_ZNSt5mutex6unlockEv(ptr noundef nonnull align 8 dereferenceable(40) %5)
  ret void
}

; Function Attrs: mustprogress nounwind uwtable
define internal void @_ZL34uninstallExceptionOrSignalHandlersv() #0 {
  %1 = alloca i32, align 4
  store i32 0, ptr %1, align 4
  br label %2

2:                                                ; preds = %14, %0
  %3 = load i32, ptr %1, align 4
  %4 = icmp ne i32 %3, 6
  br i1 %4, label %5, label %17

5:                                                ; preds = %2
  %6 = load i32, ptr %1, align 4
  %7 = zext i32 %6 to i64
  %8 = getelementptr inbounds [6 x i32], ptr @_ZL7Signals, i64 0, i64 %7
  %9 = load i32, ptr %8, align 4
  %10 = load i32, ptr %1, align 4
  %11 = zext i32 %10 to i64
  %12 = getelementptr inbounds [6 x %struct.sigaction], ptr @_ZL11PrevActions, i64 0, i64 %11
  %13 = call i32 @sigaction(i32 noundef %9, ptr noundef %12, ptr noundef null) #13
  br label %14

14:                                               ; preds = %5
  %15 = load i32, ptr %1, align 4
  %16 = add i32 %15, 1
  store i32 %16, ptr %1, align 4
  br label %2, !llvm.loop !7

17:                                               ; preds = %2
  ret void
}

; Function Attrs: mustprogress nounwind uwtable
define linkonce_odr hidden void @_ZNSt10lock_guardISt5mutexEC2ERS0_(ptr noundef nonnull align 8 dereferenceable(8) %0, ptr noundef nonnull align 8 dereferenceable(40) %1) unnamed_addr #0 comdat align 2 {
  %3 = alloca ptr, align 8
  %4 = alloca ptr, align 8
  store ptr %0, ptr %3, align 8
  store ptr %1, ptr %4, align 8
  %5 = load ptr, ptr %3, align 8
  %6 = getelementptr inbounds nuw %"class.std::lock_guard", ptr %5, i32 0, i32 0
  %7 = load ptr, ptr %4, align 8
  store ptr %7, ptr %6, align 8
  %8 = getelementptr inbounds nuw %"class.std::lock_guard", ptr %5, i32 0, i32 0
  %9 = load ptr, ptr %8, align 8
  call void @_ZNSt5mutex4lockEv(ptr noundef nonnull align 8 dereferenceable(40) %9)
  ret void
}

; Function Attrs: mustprogress nounwind uwtable
define internal noundef nonnull align 8 dereferenceable(40) ptr @_ZN12_GLOBAL__N_128getCrashRecoveryContextMutexEv() #0 {
  ret ptr @_ZZN12_GLOBAL__N_128getCrashRecoveryContextMutexEvE25CrashRecoveryContextMutex
}

; Function Attrs: mustprogress nounwind uwtable
define internal void @_ZN12_GLOBAL__N_124CrashRecoveryContextImpl11HandleCrashEim(ptr noundef nonnull align 8 dereferenceable(217) %0, i32 noundef %1, i64 noundef %2) #0 align 2 {
  %4 = alloca ptr, align 8
  %5 = alloca i32, align 4
  %6 = alloca i64, align 8
  store ptr %0, ptr %4, align 8
  store i32 %1, ptr %5, align 4
  store i64 %2, ptr %6, align 8
  %7 = load ptr, ptr %4, align 8
  %8 = getelementptr inbounds nuw %"struct.(anonymous namespace)::CrashRecoveryContextImpl", ptr %7, i32 0, i32 0
  %9 = load ptr, ptr %8, align 8
  %10 = call align 8 ptr @llvm.threadlocal.address.p0(ptr align 8 @_ZN12_GLOBAL__N_114CurrentContextE)
  store ptr %9, ptr %10, align 8
  %11 = getelementptr inbounds nuw %"struct.(anonymous namespace)::CrashRecoveryContextImpl", ptr %7, i32 0, i32 3
  %12 = load volatile i8, ptr %11, align 8
  %13 = and i8 %12, -2
  %14 = or i8 %13, 1
  store volatile i8 %14, ptr %11, align 8
  %15 = getelementptr inbounds nuw %"struct.(anonymous namespace)::CrashRecoveryContextImpl", ptr %7, i32 0, i32 1
  %16 = load ptr, ptr %15, align 8
  %17 = getelementptr inbounds nuw %"class.llvm::CrashRecoveryContext", ptr %16, i32 0, i32 3
  %18 = load i8, ptr %17, align 4
  %19 = trunc i8 %18 to i1
  br i1 %19, label %20, label %22

20:                                               ; preds = %3
  %21 = load i64, ptr %6, align 8
  call void @_ZN4llvm3sys15CleanupOnSignalEm(i64 noundef %21)
  br label %22

22:                                               ; preds = %20, %3
  %23 = load i32, ptr %5, align 4
  %24 = getelementptr inbounds nuw %"struct.(anonymous namespace)::CrashRecoveryContextImpl", ptr %7, i32 0, i32 1
  %25 = load ptr, ptr %24, align 8
  %26 = getelementptr inbounds nuw %"class.llvm::CrashRecoveryContext", ptr %25, i32 0, i32 2
  store i32 %23, ptr %26, align 8
  %27 = getelementptr inbounds nuw %"struct.(anonymous namespace)::CrashRecoveryContextImpl", ptr %7, i32 0, i32 3
  %28 = load i8, ptr %27, align 8
  %29 = lshr i8 %28, 2
  %30 = and i8 %29, 1
  %31 = zext i8 %30 to i32
  %32 = icmp ne i32 %31, 0
  br i1 %32, label %33, label %36

33:                                               ; preds = %22
  %34 = getelementptr inbounds nuw %"struct.(anonymous namespace)::CrashRecoveryContextImpl", ptr %7, i32 0, i32 2
  %35 = getelementptr inbounds [1 x %struct.__jmp_buf_tag], ptr %34, i64 0, i64 0
  call void @longjmp(ptr noundef %35, i32 noundef 1) #12
  unreachable

36:                                               ; preds = %22
  ret void
}

; Function Attrs: mustprogress nounwind uwtable
define dso_local void @_ZN4llvm20CrashRecoveryContext7DisableEv() #0 align 2 {
  %1 = alloca %"class.std::lock_guard", align 8
  %2 = alloca i32, align 4
  %3 = call noundef nonnull align 8 dereferenceable(40) ptr @_ZN12_GLOBAL__N_128getCrashRecoveryContextMutexEv()
  call void @_ZNSt10lock_guardISt5mutexEC2ERS0_(ptr noundef nonnull align 8 dereferenceable(8) %1, ptr noundef nonnull align 8 dereferenceable(40) %3)
  %4 = load i8, ptr @_ZN12_GLOBAL__N_121gCrashRecoveryEnabledE, align 1
  %5 = trunc i8 %4 to i1
  br i1 %5, label %7, label %6

6:                                                ; preds = %0
  store i32 1, ptr %2, align 4
  br label %8

7:                                                ; preds = %0
  store i8 0, ptr @_ZN12_GLOBAL__N_121gCrashRecoveryEnabledE, align 1
  call void @_ZL34uninstallExceptionOrSignalHandlersv()
  store i32 0, ptr %2, align 4
  br label %8

8:                                                ; preds = %7, %6
  call void @_ZNSt10lock_guardISt5mutexED2Ev(ptr noundef nonnull align 8 dereferenceable(8) %1) #13
  %9 = load i32, ptr %2, align 4
  switch i32 %9, label %11 [
    i32 0, label %10
    i32 1, label %10
  ]

10:                                               ; preds = %8, %8
  ret void

11:                                               ; preds = %8
  unreachable
}

; Function Attrs: mustprogress nounwind uwtable
define internal void @_ZL26CrashRecoverySignalHandleri(i32 noundef %0) #0 {
  %2 = alloca i32, align 4
  %3 = alloca ptr, align 8
  %4 = alloca %struct.__sigset_t, align 8
  %5 = alloca i32, align 4
  store i32 %0, ptr %2, align 4
  %6 = call align 8 ptr @llvm.threadlocal.address.p0(ptr align 8 @_ZN12_GLOBAL__N_114CurrentContextE)
  %7 = load ptr, ptr %6, align 8
  store ptr %7, ptr %3, align 8
  %8 = load ptr, ptr %3, align 8
  %9 = icmp ne ptr %8, null
  br i1 %9, label %13, label %10

10:                                               ; preds = %1
  call void @_ZN4llvm20CrashRecoveryContext7DisableEv()
  %11 = load i32, ptr %2, align 4
  %12 = call i32 @raise(i32 noundef %11) #13
  br label %31

13:                                               ; preds = %1
  %14 = call i32 @sigemptyset(ptr noundef %4) #13
  %15 = load i32, ptr %2, align 4
  %16 = call i32 @sigaddset(ptr noundef %4, i32 noundef %15) #13
  %17 = call i32 @sigprocmask(i32 noundef 1, ptr noundef %4, ptr noundef null) #13
  %18 = load i32, ptr %2, align 4
  %19 = add nsw i32 128, %18
  store i32 %19, ptr %5, align 4
  %20 = load i32, ptr %2, align 4
  %21 = icmp eq i32 %20, 13
  br i1 %21, label %22, label %23

22:                                               ; preds = %13
  store i32 74, ptr %5, align 4
  br label %23

23:                                               ; preds = %22, %13
  %24 = load ptr, ptr %3, align 8
  %25 = icmp ne ptr %24, null
  br i1 %25, label %26, label %31

26:                                               ; preds = %23
  %27 = load ptr, ptr %3, align 8
  %28 = load i32, ptr %5, align 4
  %29 = load i32, ptr %2, align 4
  %30 = sext i32 %29 to i64
  call void @_ZN12_GLOBAL__N_124CrashRecoveryContextImpl11HandleCrashEim(ptr noundef nonnull align 8 dereferenceable(217) %27, i32 noundef %28, i64 noundef %30)
  br label %31

31:                                               ; preds = %26, %23, %10
  ret void
}