; Function Attrs: mustprogress nounwind uwtable
define internal void @_ZL26CrashRecoverySignalHandleri(i32 noundef %0) #3 {
  %2 = alloca %struct.__sigset_t, align 8
  %3 = tail call align 8 ptr @llvm.threadlocal.address.p0(ptr align 8 @_ZN12_GLOBAL__N_114CurrentContextE)
  %4 = load ptr, ptr %3, align 8
  %.not = icmp eq ptr %4, null
  br i1 %.not, label %5, label %16

5:                                                ; preds = %1
  %6 = tail call noundef i32 @pthread_mutex_lock(ptr noundef nonnull @_ZZN12_GLOBAL__N_128getCrashRecoveryContextMutexEvE25CrashRecoveryContextMutex) #19
  %.not.i.i.i = icmp eq i32 %6, 0
  br i1 %.not.i.i.i, label %_ZNSt10lock_guardISt5mutexEC2ERS0_.exit.i, label %7

7:                                                ; preds = %5
  tail call void @_ZSt20__throw_system_errori(i32 noundef %6) #18
  unreachable

_ZNSt10lock_guardISt5mutexEC2ERS0_.exit.i:        ; preds = %5
  %.b1.i = load i1, ptr @_ZN12_GLOBAL__N_121gCrashRecoveryEnabledE, align 1
  br i1 %.b1.i, label %8, label %_ZN4llvm20CrashRecoveryContext7DisableEv.exit

8:                                                ; preds = %_ZNSt10lock_guardISt5mutexEC2ERS0_.exit.i
  store i1 false, ptr @_ZN12_GLOBAL__N_121gCrashRecoveryEnabledE, align 1
  br label %9

9:                                                ; preds = %9, %8
  %indvars.iv.i.i = phi i64 [ 0, %8 ], [ %indvars.iv.next.i.i, %9 ]
  %10 = getelementptr inbounds [6 x i32], ptr @_ZL7Signals, i64 0, i64 %indvars.iv.i.i
  %11 = load i32, ptr %10, align 4
  %12 = getelementptr inbounds [6 x %struct.sigaction], ptr @_ZL11PrevActions, i64 0, i64 %indvars.iv.i.i
  %13 = tail call i32 @sigaction(i32 noundef %11, ptr noundef nonnull %12, ptr noundef null) #19
  %indvars.iv.next.i.i = add nuw nsw i64 %indvars.iv.i.i, 1
  %.not.i.i = icmp eq i64 %indvars.iv.next.i.i, 6
  br i1 %.not.i.i, label %_ZN4llvm20CrashRecoveryContext7DisableEv.exit, label %9, !llvm.loop !7

_ZN4llvm20CrashRecoveryContext7DisableEv.exit:    ; preds = %9, %_ZNSt10lock_guardISt5mutexEC2ERS0_.exit.i
  %14 = tail call noundef i32 @pthread_mutex_unlock(ptr noundef nonnull @_ZZN12_GLOBAL__N_128getCrashRecoveryContextMutexEvE25CrashRecoveryContextMutex) #19
  %15 = tail call i32 @raise(i32 noundef %0) #19
  br label %_ZN12_GLOBAL__N_124CrashRecoveryContextImpl11HandleCrashEim.exit

16:                                               ; preds = %1
  %17 = call i32 @sigemptyset(ptr noundef nonnull %2) #19
  %18 = call i32 @sigaddset(ptr noundef nonnull %2, i32 noundef %0) #19
  %19 = call i32 @sigprocmask(i32 noundef 1, ptr noundef nonnull %2, ptr noundef null) #19
  %20 = icmp eq i32 %0, 13
  %21 = add nsw i32 %0, 128
  %spec.store.select = select i1 %20, i32 74, i32 %21
  %22 = load ptr, ptr %4, align 8
  store ptr %22, ptr %3, align 8
  %23 = getelementptr inbounds nuw i8, ptr %4, i64 216
  %24 = load volatile i8, ptr %23, align 8
  %25 = or i8 %24, 1
  store volatile i8 %25, ptr %23, align 8
  %26 = getelementptr inbounds nuw i8, ptr %4, i64 8
  %27 = load ptr, ptr %26, align 8
  %28 = getelementptr inbounds nuw i8, ptr %27, i64 20
  %29 = load i8, ptr %28, align 4
  %30 = trunc i8 %29 to i1
  br i1 %30, label %31, label %33

31:                                               ; preds = %16
  %32 = sext i32 %0 to i64
  call void @_ZN4llvm3sys15CleanupOnSignalEm(i64 noundef %32) #19
  %.pre.i = load ptr, ptr %26, align 8
  br label %33

33:                                               ; preds = %31, %16
  %34 = phi ptr [ %.pre.i, %31 ], [ %27, %16 ]
  %35 = getelementptr inbounds nuw i8, ptr %34, i64 16
  store i32 %spec.store.select, ptr %35, align 8
  %36 = load i8, ptr %23, align 8
  %37 = and i8 %36, 4
  %.not.i = icmp eq i8 %37, 0
  br i1 %.not.i, label %_ZN12_GLOBAL__N_124CrashRecoveryContextImpl11HandleCrashEim.exit, label %38

38:                                               ; preds = %33
  %39 = getelementptr inbounds nuw i8, ptr %4, i64 16
  call void @longjmp(ptr noundef nonnull %39, i32 noundef 1) #18
  unreachable

_ZN12_GLOBAL__N_124CrashRecoveryContextImpl11HandleCrashEim.exit: ; preds = %33, %_ZN4llvm20CrashRecoveryContext7DisableEv.exit
  ret void
}